target datalayout = "e-m:e-p270:32:32-p271:32:32-p272:64:64-i64:64-i128:128-f80:128-n8:16:32:64-S128"
target triple = "x86_64-pc-linux-gnu"

; Function Attrs: nounwind uwtable
define internal i32 @is_valid_mbc_string(ptr noundef %0, ptr noundef %1) #0 {
  %3 = alloca i32, align 4
  %4 = alloca ptr, align 8
  %5 = alloca ptr, align 8
  store ptr %0, ptr %4, align 8, !tbaa !4
  store ptr %1, ptr %5, align 8, !tbaa !4
  br label %6

6:                                                ; preds = %65, %2
  %7 = load ptr, ptr %4, align 8, !tbaa !4
  %8 = load ptr, ptr %5, align 8, !tbaa !4
  %9 = icmp ult ptr %7, %8
  br i1 %9, label %10, label %66

10:                                               ; preds = %6
  %11 = load ptr, ptr %4, align 8, !tbaa !4
  %12 = load i8, ptr %11, align 1, !tbaa !9
  %13 = zext i8 %12 to i32
  %14 = icmp slt i32 %13, 128
  br i1 %14, label %15, label %18

15:                                               ; preds = %10
  %16 = load ptr, ptr %4, align 8, !tbaa !4
  %17 = getelementptr inbounds nuw i8, ptr %16, i32 1
  store ptr %17, ptr %4, align 8, !tbaa !4
  br label %65

18:                                               ; preds = %10
  %19 = load ptr, ptr %4, align 8, !tbaa !4
  %20 = load i8, ptr %19, align 1, !tbaa !9
  %21 = zext i8 %20 to i32
  %22 = icmp slt i32 %21, 161
  br i1 %22, label %23, label %24

23:                                               ; preds = %18
  store i32 0, ptr %3, align 4
  br label %67

24:                                               ; preds = %18
  %25 = load ptr, ptr %4, align 8, !tbaa !4
  %26 = load i8, ptr %25, align 1, !tbaa !9
  %27 = zext i8 %26 to i32
  %28 = icmp slt i32 %27, 255
  br i1 %28, label %29, label %62

29:                                               ; preds = %24
  %30 = load ptr, ptr %4, align 8, !tbaa !4
  %31 = getelementptr inbounds nuw i8, ptr %30, i32 1
  store ptr %31, ptr %4, align 8, !tbaa !4
  %32 = load ptr, ptr %4, align 8, !tbaa !4
  %33 = load ptr, ptr %5, align 8, !tbaa !4
  %34 = icmp uge ptr %32, %33
  br i1 %34, label %35, label %36

35:                                               ; preds = %29
  store i32 0, ptr %3, align 4
  br label %67

36:                                               ; preds = %29
  %37 = load ptr, ptr %4, align 8, !tbaa !4
  %38 = load i8, ptr %37, align 1, !tbaa !9
  %39 = zext i8 %38 to i32
  %40 = icmp slt i32 %39, 64
  br i1 %40, label %41, label %42

41:                                               ; preds = %36
  store i32 0, ptr %3, align 4
  br label %67

42:                                               ; preds = %36
  %43 = load ptr, ptr %4, align 8, !tbaa !4
  %44 = load i8, ptr %43, align 1, !tbaa !9
  %45 = zext i8 %44 to i32
  %46 = icmp sgt i32 %45, 126
  br i1 %46, label %47, label %53

47:                                               ; preds = %42
  %48 = load ptr, ptr %4, align 8, !tbaa !4
  %49 = load i8, ptr %48, align 1, !tbaa !9
  %50 = zext i8 %49 to i32
  %51 = icmp slt i32 %50, 161
  br i1 %51, label %52, label %53

52:                                               ; preds = %47
  store i32 0, ptr %3, align 4
  br label %67

53:                                               ; preds = %47, %42
  %54 = load ptr, ptr %4, align 8, !tbaa !4
  %55 = load i8, ptr %54, align 1, !tbaa !9
  %56 = zext i8 %55 to i32
  %57 = icmp eq i32 %56, 255
  br i1 %57, label %58, label %59

58:                                               ; preds = %53
  store i32 0, ptr %3, align 4
  br label %67

59:                                               ; preds = %53
  %60 = load ptr, ptr %4, align 8, !tbaa !4
  %61 = getelementptr inbounds nuw i8, ptr %60, i32 1
  store ptr %61, ptr %4, align 8, !tbaa !4
  br label %63

62:                                               ; preds = %24
  store i32 0, ptr %3, align 4
  br label %67

63:                                               ; preds = %59
  br label %64

64:                                               ; preds = %63
  br label %65

65:                                               ; preds = %64, %15
  br label %6, !llvm.loop !18

66:                                               ; preds = %6
  store i32 1, ptr %3, align 4
  br label %67

67:                                               ; preds = %66, %62, %58, %52, %41, %35, %23
  %68 = load i32, ptr %3, align 4
  ret i32 %68
}