; Function Attrs: nofree norecurse nosync nounwind memory(argmem: read) uwtable
define internal range(i32 0, 2) i32 @is_valid_mbc_string(ptr noundef readonly captures(address) %0, ptr noundef readnone captures(address) %1) #4 {
  %3 = icmp ult ptr %0, %1
  br i1 %3, label %.lr.ph, label %._crit_edge

.lr.ph:                                           ; preds = %2, %16
  %.01422 = phi ptr [ %17, %16 ], [ %0, %2 ]
  %4 = load i8, ptr %.01422, align 1, !tbaa !4
  %5 = icmp sgt i8 %4, -1
  br i1 %5, label %16, label %6

6:                                                ; preds = %.lr.ph
  %7 = add nsw i8 %4, 1
  %or.cond20 = icmp ult i8 %7, -94
  br i1 %or.cond20, label %._crit_edge, label %8

8:                                                ; preds = %6
  %9 = getelementptr inbounds nuw i8, ptr %.01422, i64 1
  %.not19 = icmp ult ptr %9, %1
  br i1 %.not19, label %10, label %._crit_edge

10:                                               ; preds = %8
  %11 = load i8, ptr %9, align 1, !tbaa !4
  %12 = icmp ult i8 %11, 64
  br i1 %12, label %._crit_edge, label %13

13:                                               ; preds = %10
  %14 = add i8 %11, -127
  %or.cond = icmp ult i8 %14, 34
  %15 = icmp eq i8 %11, -1
  %or.cond21 = or i1 %15, %or.cond
  br i1 %or.cond21, label %._crit_edge, label %16

16:                                               ; preds = %13, %.lr.ph
  %.sink = phi i64 [ 1, %.lr.ph ], [ 2, %13 ]
  %17 = getelementptr inbounds nuw i8, ptr %.01422, i64 %.sink
  %18 = icmp ult ptr %17, %1
  br i1 %18, label %.lr.ph, label %._crit_edge, !llvm.loop !15

._crit_edge:                                      ; preds = %6, %8, %10, %13, %16, %2
  %.0 = phi i32 [ 1, %2 ], [ 1, %16 ], [ 0, %13 ], [ 0, %10 ], [ 0, %8 ], [ 0, %6 ]
  ret i32 %.0
}